; Function Attrs: nounwind uwtable
define noundef i32 @pmix_bfrops_base_copy_buf(ptr noundef writeonly captures(none) %0, ptr noundef readonly captures(none) %1, i16 noundef zeroext %2) local_unnamed_addr #0 {
  %4 = load i64, ptr getelementptr inbounds nuw (i8, ptr @pmix_buffer_t_class, i64 56), align 8, !tbaa !52
  %5 = tail call noalias noundef ptr @malloc(i64 noundef %4) #25
  %6 = load i32, ptr @pmix_class_init_epoch, align 4, !tbaa !54
  %7 = load i32, ptr getelementptr inbounds nuw (i8, ptr @pmix_buffer_t_class, i64 32), align 8, !tbaa !55
  %.not.i = icmp eq i32 %6, %7
  br i1 %.not.i, label %9, label %8

8:                                                ; preds = %3
  tail call void @pmix_class_initialize(ptr noundef nonnull @pmix_buffer_t_class) #23
  br label %9

9:                                                ; preds = %8, %3
  %.not22.i = icmp eq ptr %5, null
  br i1 %.not22.i, label %pmix_obj_new_tma.exit, label %10

10:                                               ; preds = %9
  %11 = tail call i32 @pthread_mutex_init(ptr noundef nonnull %5, ptr noundef null) #23
  %12 = getelementptr inbounds nuw i8, ptr %5, i64 40
  store ptr @pmix_buffer_t_class, ptr %12, align 8, !tbaa !56
  %13 = getelementptr inbounds nuw i8, ptr %5, i64 48
  store i32 1, ptr %13, align 8, !tbaa !57
  %14 = getelementptr inbounds nuw i8, ptr %5, i64 56
  %15 = getelementptr inbounds nuw i8, ptr %5, i64 96
  tail call void @llvm.memset.p0.i64(ptr noundef nonnull align 8 dereferenceable(32) %14, i8 0, i64 32, i1 false)
  tail call void @llvm.memset.p0.i64(ptr noundef nonnull align 8 dereferenceable(24) %15, i8 0, i64 24, i1 false)
  %16 = load ptr, ptr getelementptr inbounds nuw (i8, ptr @pmix_buffer_t_class, i64 40), align 8, !tbaa !58
  %17 = load ptr, ptr %16, align 8, !tbaa !15
  %.not6.i.i = icmp eq ptr %17, null
  br i1 %.not6.i.i, label %pmix_obj_new_tma.exit, label %.lr.ph.i.i

.lr.ph.i.i:                                       ; preds = %10, %.lr.ph.i.i
  %18 = phi ptr [ %20, %.lr.ph.i.i ], [ %17, %10 ]
  %.07.i.i = phi ptr [ %19, %.lr.ph.i.i ], [ %16, %10 ]
  tail call void %18(ptr noundef nonnull %5) #23
  %19 = getelementptr inbounds nuw i8, ptr %.07.i.i, i64 8
  %20 = load ptr, ptr %19, align 8, !tbaa !15
  %.not.i.i = icmp eq ptr %20, null
  br i1 %.not.i.i, label %pmix_obj_new_tma.exit, label %.lr.ph.i.i, !llvm.loop !59

pmix_obj_new_tma.exit:                            ; preds = %.lr.ph.i.i, %9, %10
  store ptr %5, ptr %0, align 8, !tbaa !15
  %21 = tail call fastcc range(i32 -29, 1) i32 @pmix_bfrops_base_tma_copy_payload(ptr noundef %5, ptr noundef readonly %1)
  ret i32 0
}